target datalayout = "e-m:e-p270:32:32-p271:32:32-p272:64:64-i64:64-i128:128-f80:128-n8:16:32:64-S128"
target triple = "x86_64-pc-linux-gnu"

%"class.llvm::codeview::DebugFrameDataSubsection" = type { %"class.llvm::codeview::DebugSubsection.base", i8, %"class.std::vector" }
%"class.llvm::codeview::DebugSubsection.base" = type <{ ptr, i32 }>
%"class.std::vector" = type { %"struct.std::_Vector_base" }
%"struct.std::_Vector_base" = type { %"struct.std::_Vector_base<llvm::codeview::FrameData, std::allocator<llvm::codeview::FrameData>>::_Vector_impl" }
%"struct.std::_Vector_base<llvm::codeview::FrameData, std::allocator<llvm::codeview::FrameData>>::_Vector_impl" = type { %"struct.std::_Vector_base<llvm::codeview::FrameData, std::allocator<llvm::codeview::FrameData>>::_Vector_impl_data" }
%"struct.std::_Vector_base<llvm::codeview::FrameData, std::allocator<llvm::codeview::FrameData>>::_Vector_impl_data" = type { ptr, ptr, ptr }

; Function Attrs: mustprogress nounwind uwtable
define linkonce_odr hidden noundef i64 @_ZNKSt6vectorIN4llvm8codeview9FrameDataESaIS2_EE4sizeEv(ptr noundef nonnull align 8 dereferenceable(24) %0) #0 comdat align 2 {
  %2 = alloca ptr, align 8
  store ptr %0, ptr %2, align 8
  %3 = load ptr, ptr %2, align 8
  %4 = getelementptr inbounds nuw %"struct.std::_Vector_base", ptr %3, i32 0, i32 0
  %5 = getelementptr inbounds nuw %"struct.std::_Vector_base<llvm::codeview::FrameData, std::allocator<llvm::codeview::FrameData>>::_Vector_impl_data", ptr %4, i32 0, i32 1
  %6 = load ptr, ptr %5, align 8
  %7 = getelementptr inbounds nuw %"struct.std::_Vector_base", ptr %3, i32 0, i32 0
  %8 = getelementptr inbounds nuw %"struct.std::_Vector_base<llvm::codeview::FrameData, std::allocator<llvm::codeview::FrameData>>::_Vector_impl_data", ptr %7, i32 0, i32 0
  %9 = load ptr, ptr %8, align 8
  %10 = ptrtoint ptr %6 to i64
  %11 = ptrtoint ptr %9 to i64
  %12 = sub i64 %10, %11
  %13 = sdiv exact i64 %12, 32
  ret i64 %13
}

; Function Attrs: mustprogress nounwind uwtable
define dso_local noundef i32 @_ZNK4llvm8codeview24DebugFrameDataSubsection23calculateSerializedSizeEv(ptr noundef nonnull align 8 dereferenceable(40) %0) unnamed_addr #0 align 2 {
  %2 = alloca ptr, align 8
  %3 = alloca i32, align 4
  store ptr %0, ptr %2, align 8
  %4 = load ptr, ptr %2, align 8
  %5 = getelementptr inbounds nuw %"class.llvm::codeview::DebugFrameDataSubsection", ptr %4, i32 0, i32 2
  %6 = call noundef i64 @_ZNKSt6vectorIN4llvm8codeview9FrameDataESaIS2_EE4sizeEv(ptr noundef nonnull align 8 dereferenceable(24) %5) #10
  %7 = mul i64 32, %6
  %8 = trunc i64 %7 to i32
  store i32 %8, ptr %3, align 4
  %9 = getelementptr inbounds nuw %"class.llvm::codeview::DebugFrameDataSubsection", ptr %4, i32 0, i32 1
  %10 = load i8, ptr %9, align 4
  %11 = trunc i8 %10 to i1
  br i1 %11, label %12, label %17

12:                                               ; preds = %1
  %13 = load i32, ptr %3, align 4
  %14 = zext i32 %13 to i64
  %15 = add i64 %14, 4
  %16 = trunc i64 %15 to i32
  store i32 %16, ptr %3, align 4
  br label %17

17:                                               ; preds = %12, %1
  %18 = load i32, ptr %3, align 4
  ret i32 %18
}