; Function Attrs: mustprogress nofree norecurse nosync nounwind willreturn memory(argmem: read) uwtable
define dso_local noundef i32 @_ZNK4llvm8codeview24DebugFrameDataSubsection23calculateSerializedSizeEv(ptr nocapture noundef nonnull readonly align 8 dereferenceable(40) %0) unnamed_addr #2 align 2 {
  %2 = getelementptr inbounds nuw i8, ptr %0, i64 16
  %3 = getelementptr inbounds i8, ptr %0, i64 24
  %4 = load ptr, ptr %3, align 8
  %5 = load ptr, ptr %2, align 8
  %6 = ptrtoint ptr %4 to i64
  %7 = ptrtoint ptr %5 to i64
  %8 = sub i64 %6, %7
  %9 = trunc i64 %8 to i32
  %10 = and i32 %9, -32
  %11 = getelementptr inbounds nuw i8, ptr %0, i64 12
  %12 = load i8, ptr %11, align 4
  %13 = trunc i8 %12 to i1
  %14 = or disjoint i32 %10, 4
  %spec.select = select i1 %13, i32 %14, i32 %10
  ret i32 %spec.select
}